; Function Attrs: mustprogress nounwind uwtable
define dso_local noundef i32 @_ZN4node10permission10Permission18StringToPermissionERKNSt7__cxx1112basic_stringIcSt11char_traitsIcESaIcEEE(ptr noundef nonnull align 8 dereferenceable(32) %perm) local_unnamed_addr #4 align 2 {
entry:
  %call.i = tail call noundef i32 @_ZNKSt7__cxx1112basic_stringIcSt11char_traitsIcESaIcEE7compareEPKc(ptr noundef nonnull align 8 dereferenceable(32) %perm, ptr noundef nonnull @.str.6) #18
  %cmp.i = icmp eq i32 %call.i, 0
  br i1 %cmp.i, label %return, label %if.end

if.end:                                           ; preds = %entry
  %call.i6 = tail call noundef i32 @_ZNKSt7__cxx1112basic_stringIcSt11char_traitsIcESaIcEE7compareEPKc(ptr noundef nonnull align 8 dereferenceable(32) %perm, ptr noundef nonnull @.str.7) #18
  %cmp.i7 = icmp eq i32 %call.i6, 0
  br i1 %cmp.i7, label %return, label %if.end3

if.end3:                                          ; preds = %if.end
  %call.i8 = tail call noundef i32 @_ZNKSt7__cxx1112basic_stringIcSt11char_traitsIcESaIcEE7compareEPKc(ptr noundef nonnull align 8 dereferenceable(32) %perm, ptr noundef nonnull @.str.8) #18
  %cmp.i9 = icmp eq i32 %call.i8, 0
  br i1 %cmp.i9, label %return, label %if.end6

if.end6:                                          ; preds = %if.end3
  %call.i10 = tail call noundef i32 @_ZNKSt7__cxx1112basic_stringIcSt11char_traitsIcESaIcEE7compareEPKc(ptr noundef nonnull align 8 dereferenceable(32) %perm, ptr noundef nonnull @.str.9) #18
  %cmp.i11 = icmp eq i32 %call.i10, 0
  br i1 %cmp.i11, label %return, label %if.end9

if.end9:                                          ; preds = %if.end6
  %call.i12 = tail call noundef i32 @_ZNKSt7__cxx1112basic_stringIcSt11char_traitsIcESaIcEE7compareEPKc(ptr noundef nonnull align 8 dereferenceable(32) %perm, ptr noundef nonnull @.str.10) #18
  %cmp.i13 = icmp eq i32 %call.i12, 0
  br i1 %cmp.i13, label %return, label %if.end12

if.end12:                                         ; preds = %if.end9
  %call.i14 = tail call noundef i32 @_ZNKSt7__cxx1112basic_stringIcSt11char_traitsIcESaIcEE7compareEPKc(ptr noundef nonnull align 8 dereferenceable(32) %perm, ptr noundef nonnull @.str.11) #18
  %cmp.i15 = icmp eq i32 %call.i14, 0
  %. = select i1 %cmp.i15, i32 5, i32 -1
  br label %return

return:                                           ; preds = %if.end12, %if.end9, %if.end6, %if.end3, %if.end, %entry
  %retval.0 = phi i32 [ 0, %entry ], [ 1, %if.end ], [ 2, %if.end3 ], [ 3, %if.end6 ], [ 4, %if.end9 ], [ %., %if.end12 ]
  ret i32 %retval.0
}